target datalayout = "e-m:e-p270:32:32-p271:32:32-p272:64:64-i64:64-i128:128-f80:128-n8:16:32:64-S128"
target triple = "x86_64-pc-linux-gnu"

%struct.AVFilterContext = type { ptr, ptr, ptr, ptr, ptr, i32, ptr, ptr, i32, ptr, ptr, i32, i32, ptr, ptr, ptr, ptr, i32, ptr, i32, i32 }
%struct.PSNRContext = type { ptr, %struct.FFFrameSync, double, double, double, [4 x double], i64, ptr, ptr, i32, i32, i32, [4 x i32], i32, i32, [4 x i8], [4 x i8], i32, i32, [4 x i32], [4 x i32], [4 x double], ptr, %struct.PSNRDSPContext }
%struct.FFFrameSync = type { ptr, ptr, i32, %struct.AVRational, i64, ptr, ptr, i32, i32, i8, i8, ptr, i32, i32, i32, i32 }
%struct.AVRational = type { i32, i32 }
%struct.PSNRDSPContext = type { ptr }

@stdout = external global ptr, align 8
@.str.41 = private unnamed_addr constant [7 x i8] c" %c:%f\00", align 1
@.str.42 = private unnamed_addr constant [33 x i8] c"PSNR%s average:%f min:%f max:%f\0A\00", align 1

; Function Attrs: inlinehint nounwind uwtable
define internal i32 @pow_2(i32 noundef %0) #7 {
  %2 = alloca i32, align 4
  store i32 %0, ptr %2, align 4, !tbaa !40
  %3 = load i32, ptr %2, align 4, !tbaa !40
  %4 = load i32, ptr %2, align 4, !tbaa !40
  %5 = mul i32 %3, %4
  ret i32 %5
}

; Function Attrs: inlinehint nounwind uwtable
define internal double @get_psnr(double noundef %0, i64 noundef %1, i32 noundef %2) #7 {
  %4 = alloca double, align 8
  %5 = alloca i64, align 8
  %6 = alloca i32, align 4
  store double %0, ptr %4, align 8, !tbaa !46
  store i64 %1, ptr %5, align 8, !tbaa !88
  store i32 %2, ptr %6, align 4, !tbaa !40
  %7 = load i32, ptr %6, align 4, !tbaa !40
  %8 = call i32 @pow_2(i32 noundef %7)
  %9 = uitofp i32 %8 to double
  %10 = load double, ptr %4, align 8, !tbaa !46
  %11 = load i64, ptr %5, align 8, !tbaa !88
  %12 = uitofp i64 %11 to double
  %13 = fdiv nsz double %10, %12
  %14 = fdiv nsz double %9, %13
  %15 = call nsz double @llvm.log10.f64(double %14)
  %16 = fmul nsz double 1.000000e+01, %15
  ret double %16
}

; Function Attrs: cold nounwind optsize uwtable
define internal void @uninit(ptr noundef %0) #1 {
  %2 = alloca ptr, align 8
  %3 = alloca ptr, align 8
  %4 = alloca i32, align 4
  %5 = alloca [256 x i8], align 16
  %6 = alloca i32, align 4
  %7 = alloca i32, align 4
  store ptr %0, ptr %2, align 8, !tbaa !4
  call void @llvm.lifetime.start.p0(i64 8, ptr %3) #12
  %8 = load ptr, ptr %2, align 8, !tbaa !4
  %9 = getelementptr inbounds nuw %struct.AVFilterContext, ptr %8, i32 0, i32 9
  %10 = load ptr, ptr %9, align 8, !tbaa !9
  store ptr %10, ptr %3, align 8, !tbaa !22
  %11 = load ptr, ptr %3, align 8, !tbaa !22
  %12 = getelementptr inbounds nuw %struct.PSNRContext, ptr %11, i32 0, i32 6
  %13 = load i64, ptr %12, align 8, !tbaa !42
  %14 = icmp ugt i64 %13, 0
  br i1 %14, label %15, label %95

15:                                               ; preds = %1
  call void @llvm.lifetime.start.p0(i64 4, ptr %4) #12
  call void @llvm.lifetime.start.p0(i64 256, ptr %5) #12
  %16 = getelementptr inbounds [256 x i8], ptr %5, i64 0, i64 0
  store i8 0, ptr %16, align 16, !tbaa !43
  store i32 0, ptr %4, align 4, !tbaa !40
  br label %17

17:                                               ; preds = %65, %15
  %18 = load i32, ptr %4, align 4, !tbaa !40
  %19 = load ptr, ptr %3, align 8, !tbaa !22
  %20 = getelementptr inbounds nuw %struct.PSNRContext, ptr %19, i32 0, i32 17
  %21 = load i32, ptr %20, align 4, !tbaa !44
  %22 = icmp slt i32 %18, %21
  br i1 %22, label %23, label %68

23:                                               ; preds = %17
  call void @llvm.lifetime.start.p0(i64 4, ptr %6) #12
  %24 = load ptr, ptr %3, align 8, !tbaa !22
  %25 = getelementptr inbounds nuw %struct.PSNRContext, ptr %24, i32 0, i32 14
  %26 = load i32, ptr %25, align 8, !tbaa !45
  %27 = icmp ne i32 %26, 0
  br i1 %27, label %28, label %36

28:                                               ; preds = %23
  %29 = load ptr, ptr %3, align 8, !tbaa !22
  %30 = getelementptr inbounds nuw %struct.PSNRContext, ptr %29, i32 0, i32 15
  %31 = load i32, ptr %4, align 4, !tbaa !40
  %32 = sext i32 %31 to i64
  %33 = getelementptr inbounds [4 x i8], ptr %30, i64 0, i64 %32
  %34 = load i8, ptr %33, align 1, !tbaa !43
  %35 = zext i8 %34 to i32
  br label %38

36:                                               ; preds = %23
  %37 = load i32, ptr %4, align 4, !tbaa !40
  br label %38

38:                                               ; preds = %36, %28
  %39 = phi i32 [ %35, %28 ], [ %37, %36 ]
  store i32 %39, ptr %6, align 4, !tbaa !40
  %40 = getelementptr inbounds [256 x i8], ptr %5, i64 0, i64 0
  %41 = load ptr, ptr %3, align 8, !tbaa !22
  %42 = getelementptr inbounds nuw %struct.PSNRContext, ptr %41, i32 0, i32 16
  %43 = load i32, ptr %4, align 4, !tbaa !40
  %44 = sext i32 %43 to i64
  %45 = getelementptr inbounds [4 x i8], ptr %42, i64 0, i64 %44
  %46 = load i8, ptr %45, align 1, !tbaa !43
  %47 = sext i8 %46 to i32
  %48 = load ptr, ptr %3, align 8, !tbaa !22
  %49 = getelementptr inbounds nuw %struct.PSNRContext, ptr %48, i32 0, i32 5
  %50 = load i32, ptr %6, align 4, !tbaa !40
  %51 = sext i32 %50 to i64
  %52 = getelementptr inbounds [4 x double], ptr %49, i64 0, i64 %51
  %53 = load double, ptr %52, align 8, !tbaa !46
  %54 = load ptr, ptr %3, align 8, !tbaa !22
  %55 = getelementptr inbounds nuw %struct.PSNRContext, ptr %54, i32 0, i32 6
  %56 = load i64, ptr %55, align 8, !tbaa !42
  %57 = load ptr, ptr %3, align 8, !tbaa !22
  %58 = getelementptr inbounds nuw %struct.PSNRContext, ptr %57, i32 0, i32 12
  %59 = load i32, ptr %6, align 4, !tbaa !40
  %60 = sext i32 %59 to i64
  %61 = getelementptr inbounds [4 x i32], ptr %58, i64 0, i64 %60
  %62 = load i32, ptr %61, align 4, !tbaa !40
  %63 = call nsz double @get_psnr(double noundef %53, i64 noundef %56, i32 noundef %62)
  %64 = call i64 (ptr, i64, ptr, ...) @av_strlcatf(ptr noundef %40, i64 noundef 256, ptr noundef @.str.41, i32 noundef %47, double noundef %63)
  call void @llvm.lifetime.end.p0(i64 4, ptr %6) #12
  br label %65

65:                                               ; preds = %38
  %66 = load i32, ptr %4, align 4, !tbaa !40
  %67 = add nsw i32 %66, 1
  store i32 %67, ptr %4, align 4, !tbaa !40
  br label %17, !llvm.loop !47

68:                                               ; preds = %17
  %69 = load ptr, ptr %2, align 8, !tbaa !4
  %70 = getelementptr inbounds [256 x i8], ptr %5, i64 0, i64 0
  %71 = load ptr, ptr %3, align 8, !tbaa !22
  %72 = getelementptr inbounds nuw %struct.PSNRContext, ptr %71, i32 0, i32 2
  %73 = load double, ptr %72, align 8, !tbaa !49
  %74 = load ptr, ptr %3, align 8, !tbaa !22
  %75 = getelementptr inbounds nuw %struct.PSNRContext, ptr %74, i32 0, i32 6
  %76 = load i64, ptr %75, align 8, !tbaa !42
  %77 = load ptr, ptr %3, align 8, !tbaa !22
  %78 = getelementptr inbounds nuw %struct.PSNRContext, ptr %77, i32 0, i32 13
  %79 = load i32, ptr %78, align 4, !tbaa !50
  %80 = call nsz double @get_psnr(double noundef %73, i64 noundef %76, i32 noundef %79)
  %81 = load ptr, ptr %3, align 8, !tbaa !22
  %82 = getelementptr inbounds nuw %struct.PSNRContext, ptr %81, i32 0, i32 4
  %83 = load double, ptr %82, align 8, !tbaa !34
  %84 = load ptr, ptr %3, align 8, !tbaa !22
  %85 = getelementptr inbounds nuw %struct.PSNRContext, ptr %84, i32 0, i32 13
  %86 = load i32, ptr %85, align 4, !tbaa !50
  %87 = call nsz double @get_psnr(double noundef %83, i64 noundef 1, i32 noundef %86)
  %88 = load ptr, ptr %3, align 8, !tbaa !22
  %89 = getelementptr inbounds nuw %struct.PSNRContext, ptr %88, i32 0, i32 3
  %90 = load double, ptr %89, align 8, !tbaa !24
  %91 = load ptr, ptr %3, align 8, !tbaa !22
  %92 = getelementptr inbounds nuw %struct.PSNRContext, ptr %91, i32 0, i32 13
  %93 = load i32, ptr %92, align 4, !tbaa !50
  %94 = call nsz double @get_psnr(double noundef %90, i64 noundef 1, i32 noundef %93)
  call void (ptr, i32, ptr, ...) @av_log(ptr noundef %69, i32 noundef 32, ptr noundef @.str.42, ptr noundef %70, double noundef %80, double noundef %87, double noundef %94)
  call void @llvm.lifetime.end.p0(i64 256, ptr %5) #12
  call void @llvm.lifetime.end.p0(i64 4, ptr %4) #12
  br label %95

95:                                               ; preds = %68, %1
  %96 = load ptr, ptr %3, align 8, !tbaa !22
  %97 = getelementptr inbounds nuw %struct.PSNRContext, ptr %96, i32 0, i32 1
  call void @ff_framesync_uninit(ptr noundef %97)
  call void @llvm.lifetime.start.p0(i64 4, ptr %7) #12
  store i32 0, ptr %7, align 4, !tbaa !40
  br label %98

98:                                               ; preds = %119, %95
  %99 = load i32, ptr %7, align 4, !tbaa !40
  %100 = load ptr, ptr %3, align 8, !tbaa !22
  %101 = getelementptr inbounds nuw %struct.PSNRContext, ptr %100, i32 0, i32 18
  %102 = load i32, ptr %101, align 8, !tbaa !51
  %103 = icmp slt i32 %99, %102
  br i1 %103, label %104, label %109

104:                                              ; preds = %98
  %105 = load ptr, ptr %3, align 8, !tbaa !22
  %106 = getelementptr inbounds nuw %struct.PSNRContext, ptr %105, i32 0, i32 22
  %107 = load ptr, ptr %106, align 8, !tbaa !52
  %108 = icmp ne ptr %107, null
  br label %109

109:                                              ; preds = %104, %98
  %110 = phi i1 [ false, %98 ], [ %108, %104 ]
  br i1 %110, label %112, label %111

111:                                              ; preds = %109
  call void @llvm.lifetime.end.p0(i64 4, ptr %7) #12
  br label %122

112:                                              ; preds = %109
  %113 = load ptr, ptr %3, align 8, !tbaa !22
  %114 = getelementptr inbounds nuw %struct.PSNRContext, ptr %113, i32 0, i32 22
  %115 = load ptr, ptr %114, align 8, !tbaa !52
  %116 = load i32, ptr %7, align 4, !tbaa !40
  %117 = sext i32 %116 to i64
  %118 = getelementptr inbounds ptr, ptr %115, i64 %117
  call void @av_freep(ptr noundef %118)
  br label %119

119:                                              ; preds = %112
  %120 = load i32, ptr %7, align 4, !tbaa !40
  %121 = add nsw i32 %120, 1
  store i32 %121, ptr %7, align 4, !tbaa !40
  br label %98, !llvm.loop !53

122:                                              ; preds = %111
  %123 = load ptr, ptr %3, align 8, !tbaa !22
  %124 = getelementptr inbounds nuw %struct.PSNRContext, ptr %123, i32 0, i32 22
  call void @av_freep(ptr noundef %124)
  %125 = load ptr, ptr %3, align 8, !tbaa !22
  %126 = getelementptr inbounds nuw %struct.PSNRContext, ptr %125, i32 0, i32 7
  %127 = load ptr, ptr %126, align 8, !tbaa !39
  %128 = icmp ne ptr %127, null
  br i1 %128, label %129, label %140

129:                                              ; preds = %122
  %130 = load ptr, ptr %3, align 8, !tbaa !22
  %131 = getelementptr inbounds nuw %struct.PSNRContext, ptr %130, i32 0, i32 7
  %132 = load ptr, ptr %131, align 8, !tbaa !39
  %133 = load ptr, ptr @stdout, align 8, !tbaa !38
  %134 = icmp ne ptr %132, %133
  br i1 %134, label %135, label %140

135:                                              ; preds = %129
  %136 = load ptr, ptr %3, align 8, !tbaa !22
  %137 = getelementptr inbounds nuw %struct.PSNRContext, ptr %136, i32 0, i32 7
  %138 = load ptr, ptr %137, align 8, !tbaa !39
  %139 = call i32 @fclose(ptr noundef %138)
  br label %140

140:                                              ; preds = %135, %129, %122
  call void @llvm.lifetime.end.p0(i64 8, ptr %3) #12
  ret void
}