; Function Attrs: cold nounwind optsize uwtable
define internal void @uninit(ptr noundef %0) #1 {
  %2 = alloca [256 x i8], align 16
  %3 = getelementptr inbounds nuw i8, ptr %0, i64 72
  %4 = load ptr, ptr %3, align 8, !tbaa !4
  %5 = getelementptr inbounds nuw i8, ptr %4, i64 160
  %6 = load i64, ptr %5, align 8, !tbaa !39
  %.not = icmp eq i64 %6, 0
  br i1 %.not, label %66, label %7

7:                                                ; preds = %1
  call void @llvm.lifetime.start.p0(i64 256, ptr nonnull %2) #12
  store i8 0, ptr %2, align 16, !tbaa !40
  %8 = getelementptr inbounds nuw i8, ptr %4, i64 228
  %9 = load i32, ptr %8, align 4, !tbaa !41
  %10 = icmp sgt i32 %9, 0
  br i1 %10, label %.lr.ph, label %._crit_edge

.lr.ph:                                           ; preds = %7
  %11 = getelementptr inbounds nuw i8, ptr %4, i64 216
  %12 = getelementptr inbounds nuw i8, ptr %4, i64 220
  %13 = getelementptr inbounds nuw i8, ptr %4, i64 224
  %14 = getelementptr inbounds nuw i8, ptr %4, i64 128
  %15 = getelementptr inbounds nuw i8, ptr %4, i64 196
  br label %16

16:                                               ; preds = %.lr.ph, %22
  %indvars.iv = phi i64 [ 0, %.lr.ph ], [ %indvars.iv.next, %22 ]
  %17 = load i32, ptr %11, align 8, !tbaa !42
  %.not40 = icmp eq i32 %17, 0
  br i1 %.not40, label %22, label %18

18:                                               ; preds = %16
  %19 = getelementptr inbounds nuw [4 x i8], ptr %12, i64 0, i64 %indvars.iv
  %20 = load i8, ptr %19, align 1, !tbaa !40
  %21 = zext i8 %20 to i64
  br label %22

22:                                               ; preds = %16, %18
  %23 = phi i64 [ %21, %18 ], [ %indvars.iv, %16 ]
  %24 = getelementptr inbounds nuw [4 x i8], ptr %13, i64 0, i64 %indvars.iv
  %25 = load i8, ptr %24, align 1, !tbaa !40
  %26 = sext i8 %25 to i32
  %27 = and i64 %23, 4294967295
  %28 = getelementptr inbounds nuw [4 x double], ptr %14, i64 0, i64 %27
  %29 = load double, ptr %28, align 8, !tbaa !43
  %30 = load i64, ptr %5, align 8, !tbaa !39
  %31 = getelementptr inbounds nuw [4 x i32], ptr %15, i64 0, i64 %27
  %32 = load i32, ptr %31, align 4, !tbaa !37
  %33 = mul i32 %32, %32
  %34 = uitofp i32 %33 to double
  %35 = uitofp i64 %30 to double
  %36 = fdiv nsz double %29, %35
  %37 = fdiv nsz double %34, %36
  %38 = call nsz double @llvm.log10.f64(double %37)
  %39 = fmul nsz double %38, 1.000000e+01
  %40 = call i64 (ptr, i64, ptr, ...) @av_strlcatf(ptr noundef nonnull %2, i64 noundef 256, ptr noundef nonnull @.str.41, i32 noundef %26, double noundef %39) #12
  %indvars.iv.next = add nuw nsw i64 %indvars.iv, 1
  %41 = load i32, ptr %8, align 4, !tbaa !41
  %42 = sext i32 %41 to i64
  %43 = icmp slt i64 %indvars.iv.next, %42
  br i1 %43, label %16, label %._crit_edge.loopexit, !llvm.loop !44

._crit_edge.loopexit:                             ; preds = %22
  %.pre = load i64, ptr %5, align 8, !tbaa !39
  br label %._crit_edge

._crit_edge:                                      ; preds = %._crit_edge.loopexit, %7
  %44 = phi i64 [ %.pre, %._crit_edge.loopexit ], [ %6, %7 ]
  %45 = getelementptr inbounds nuw i8, ptr %4, i64 104
  %46 = load double, ptr %45, align 8, !tbaa !46
  %47 = getelementptr inbounds nuw i8, ptr %4, i64 212
  %48 = load i32, ptr %47, align 4, !tbaa !47
  %49 = mul i32 %48, %48
  %50 = uitofp i32 %49 to double
  %51 = uitofp i64 %44 to double
  %52 = fdiv nsz double %46, %51
  %53 = fdiv nsz double %50, %52
  %54 = call nsz double @llvm.log10.f64(double %53)
  %55 = fmul nsz double %54, 1.000000e+01
  %56 = getelementptr inbounds nuw i8, ptr %4, i64 120
  %57 = load double, ptr %56, align 8, !tbaa !31
  %58 = fdiv nsz double %50, %57
  %59 = call nsz double @llvm.log10.f64(double %58)
  %60 = fmul nsz double %59, 1.000000e+01
  %61 = getelementptr inbounds nuw i8, ptr %4, i64 112
  %62 = load double, ptr %61, align 8, !tbaa !20
  %63 = fdiv nsz double %50, %62
  %64 = call nsz double @llvm.log10.f64(double %63)
  %65 = fmul nsz double %64, 1.000000e+01
  call void (ptr, i32, ptr, ...) @av_log(ptr noundef %0, i32 noundef 32, ptr noundef nonnull @.str.42, ptr noundef nonnull %2, double noundef %55, double noundef %60, double noundef %65) #12
  call void @llvm.lifetime.end.p0(i64 256, ptr nonnull %2) #12
  br label %66

66:                                               ; preds = %._crit_edge, %1
  %67 = getelementptr inbounds nuw i8, ptr %4, i64 8
  call void @ff_framesync_uninit(ptr noundef nonnull %67) #12
  %68 = getelementptr inbounds nuw i8, ptr %4, i64 304
  %69 = getelementptr inbounds nuw i8, ptr %4, i64 232
  %70 = load i32, ptr %69, align 8, !tbaa !48
  %71 = icmp sgt i32 %70, 0
  br i1 %71, label %.lr.ph44, label %.critedge

.lr.ph44:                                         ; preds = %66, %76
  %indvars.iv47 = phi i64 [ %indvars.iv.next48, %76 ], [ 0, %66 ]
  %72 = load ptr, ptr %68, align 8, !tbaa !49
  %.not37 = icmp eq ptr %72, null
  br i1 %.not37, label %.critedge, label %76

.critedge:                                        ; preds = %.lr.ph44, %76, %66
  call void @av_freep(ptr noundef nonnull %68) #12
  %73 = getelementptr inbounds nuw i8, ptr %4, i64 168
  %74 = load ptr, ptr %73, align 8, !tbaa !36
  %.not38 = icmp eq ptr %74, null
  %75 = load ptr, ptr @stdout, align 8
  %.not39 = icmp eq ptr %74, %75
  %or.cond = select i1 %.not38, i1 true, i1 %.not39
  br i1 %or.cond, label %83, label %81

76:                                               ; preds = %.lr.ph44
  %77 = getelementptr inbounds nuw ptr, ptr %72, i64 %indvars.iv47
  call void @av_freep(ptr noundef nonnull %77) #12
  %indvars.iv.next48 = add nuw nsw i64 %indvars.iv47, 1
  %78 = load i32, ptr %69, align 8, !tbaa !48
  %79 = sext i32 %78 to i64
  %80 = icmp slt i64 %indvars.iv.next48, %79
  br i1 %80, label %.lr.ph44, label %.critedge, !llvm.loop !50

81:                                               ; preds = %.critedge
  %82 = call i32 @fclose(ptr noundef nonnull %74)
  br label %83

83:                                               ; preds = %81, %.critedge
  ret void
}